target datalayout = "e-m:e-p270:32:32-p271:32:32-p272:64:64-i64:64-i128:128-f80:128-n8:16:32:64-S128"
target triple = "x86_64-unknown-linux-gnu"

%struct.dtoa_alloc = type { i32, i32, ptr, [8 x ptr], [1 x double] }
%struct.Bigint = type { ptr, i32, i32, i32, i32, [1 x i32] }

; Function Attrs: nounwind uwtable
define internal void @Bfree(ptr noundef %dalloc, ptr noundef %v) #0 {
entry:
  %dalloc.addr = alloca ptr, align 8
  %v.addr = alloca ptr, align 8
  store ptr %dalloc, ptr %dalloc.addr, align 8
  store ptr %v, ptr %v.addr, align 8
  %0 = load ptr, ptr %v.addr, align 8
  %tobool = icmp ne ptr %0, null
  br i1 %tobool, label %if.then, label %if.end7

if.then:                                          ; preds = %entry
  %1 = load ptr, ptr %v.addr, align 8
  %k = getelementptr inbounds %struct.Bigint, ptr %1, i32 0, i32 1
  %2 = load i32, ptr %k, align 8
  %cmp = icmp sgt i32 %2, 7
  br i1 %cmp, label %if.then1, label %if.else

if.then1:                                         ; preds = %if.then
  %3 = load ptr, ptr %v.addr, align 8
  call void @free(ptr noundef %3) #9
  br label %if.end

if.else:                                          ; preds = %if.then
  %4 = load ptr, ptr %dalloc.addr, align 8
  %freelist = getelementptr inbounds %struct.dtoa_alloc, ptr %4, i32 0, i32 3
  %5 = load ptr, ptr %v.addr, align 8
  %k2 = getelementptr inbounds %struct.Bigint, ptr %5, i32 0, i32 1
  %6 = load i32, ptr %k2, align 8
  %idxprom = sext i32 %6 to i64
  %arrayidx = getelementptr inbounds [8 x ptr], ptr %freelist, i64 0, i64 %idxprom
  %7 = load ptr, ptr %arrayidx, align 8
  %8 = load ptr, ptr %v.addr, align 8
  %next = getelementptr inbounds %struct.Bigint, ptr %8, i32 0, i32 0
  store ptr %7, ptr %next, align 8
  %9 = load ptr, ptr %v.addr, align 8
  %10 = load ptr, ptr %dalloc.addr, align 8
  %freelist3 = getelementptr inbounds %struct.dtoa_alloc, ptr %10, i32 0, i32 3
  %11 = load ptr, ptr %v.addr, align 8
  %k4 = getelementptr inbounds %struct.Bigint, ptr %11, i32 0, i32 1
  %12 = load i32, ptr %k4, align 8
  %idxprom5 = sext i32 %12 to i64
  %arrayidx6 = getelementptr inbounds [8 x ptr], ptr %freelist3, i64 0, i64 %idxprom5
  store ptr %9, ptr %arrayidx6, align 8
  br label %if.end

if.end:                                           ; preds = %if.else, %if.then1
  br label %if.end7

if.end7:                                          ; preds = %if.end, %entry
  ret void
}

; Function Attrs: nounwind uwtable
define hidden void @g_freedtoa(ptr noundef %dalloc, ptr noundef %s) #0 {
entry:
  %dalloc.addr = alloca ptr, align 8
  %s.addr = alloca ptr, align 8
  %b = alloca ptr, align 8
  store ptr %dalloc, ptr %dalloc.addr, align 8
  store ptr %s, ptr %s.addr, align 8
  %0 = load ptr, ptr %s.addr, align 8
  %add.ptr = getelementptr inbounds i32, ptr %0, i64 -1
  store ptr %add.ptr, ptr %b, align 8
  %1 = load ptr, ptr %b, align 8
  %2 = load i32, ptr %1, align 4
  %3 = load ptr, ptr %b, align 8
  %k = getelementptr inbounds %struct.Bigint, ptr %3, i32 0, i32 1
  store i32 %2, ptr %k, align 8
  %shl = shl i32 1, %2
  %4 = load ptr, ptr %b, align 8
  %maxwds = getelementptr inbounds %struct.Bigint, ptr %4, i32 0, i32 2
  store i32 %shl, ptr %maxwds, align 4
  %5 = load ptr, ptr %dalloc.addr, align 8
  %6 = load ptr, ptr %b, align 8
  call void @Bfree(ptr noundef %5, ptr noundef %6)
  ret void
}