; Function Attrs: mustprogress nounwind willreturn memory(argmem: readwrite, inaccessiblemem: readwrite) uwtable
define hidden void @g_freedtoa(ptr noundef captures(none) %dalloc, ptr noundef initializes((4, 12)) %s) local_unnamed_addr #2 {
entry:
  %add.ptr = getelementptr inbounds i8, ptr %s, i64 -4
  %0 = load i32, ptr %add.ptr, align 4
  %k = getelementptr inbounds nuw i8, ptr %s, i64 4
  store i32 %0, ptr %k, align 8
  %shl = shl nuw i32 1, %0
  %maxwds = getelementptr inbounds nuw i8, ptr %s, i64 8
  store i32 %shl, ptr %maxwds, align 4
  %cmp.i = icmp sgt i32 %0, 7
  br i1 %cmp.i, label %if.then1.i, label %if.else.i

if.then1.i:                                       ; preds = %entry
  tail call void @free(ptr noundef nonnull %add.ptr) #17
  br label %Bfree.exit

if.else.i:                                        ; preds = %entry
  %freelist.i = getelementptr inbounds nuw i8, ptr %dalloc, i64 16
  %idxprom.i = sext i32 %0 to i64
  %arrayidx.i = getelementptr inbounds [8 x ptr], ptr %freelist.i, i64 0, i64 %idxprom.i
  %1 = load ptr, ptr %arrayidx.i, align 8
  store ptr %1, ptr %add.ptr, align 8
  store ptr %add.ptr, ptr %arrayidx.i, align 8
  br label %Bfree.exit

Bfree.exit:                                       ; preds = %if.then1.i, %if.else.i
  ret void
}